target datalayout = "e-m:e-p270:32:32-p271:32:32-p272:64:64-i64:64-i128:128-f80:128-n8:16:32:64-S128"
target triple = "x86_64-unknown-linux-gnu"

%"class.google::protobuf::internal::SymbolBase" = type { i8 }
%"class.google::protobuf::Reflection" = type { ptr, %"struct.google::protobuf::internal::ReflectionSchema", ptr, ptr, i32, %"class.absl::lts_20230802::once_flag", ptr }
%"struct.google::protobuf::internal::ReflectionSchema" = type { ptr, ptr, ptr, i32, i32, i32, i32, i32, i32, ptr, i32, i32, i32 }
%"class.absl::lts_20230802::once_flag" = type { %"struct.std::atomic.1" }
%"struct.std::atomic.1" = type { %"struct.std::__atomic_base.2" }
%"struct.std::__atomic_base.2" = type { i32 }
%"class.google::protobuf::Descriptor" = type { %"class.google::protobuf::internal::SymbolBase", i8, i16, i32, ptr, ptr, ptr, ptr, ptr, ptr, ptr, ptr, ptr, ptr, ptr, ptr, ptr, ptr, i32, i32, i32, i32, i32, i32, i32, i32 }
%"class.google::protobuf::OneofDescriptor" = type { %"class.google::protobuf::internal::SymbolBase", i32, ptr, ptr, ptr, ptr, ptr, ptr }

; Function Attrs: mustprogress nounwind uwtable
define linkonce_odr hidden noundef ptr @_ZN6google8protobuf8internal23GetConstPointerAtOffsetIjEEPKT_PKvj(ptr noundef %message, i32 noundef %offset) #4 comdat {
entry:
  %message.addr = alloca ptr, align 8
  %offset.addr = alloca i32, align 4
  store ptr %message, ptr %message.addr, align 8
  store i32 %offset, ptr %offset.addr, align 4
  %0 = load ptr, ptr %message.addr, align 8
  %1 = load i32, ptr %offset.addr, align 4
  %idx.ext = zext i32 %1 to i64
  %add.ptr = getelementptr inbounds i8, ptr %0, i64 %idx.ext
  ret ptr %add.ptr
}

; Function Attrs: mustprogress nounwind uwtable
define linkonce_odr hidden noundef i32 @_ZNK6google8protobuf15OneofDescriptor5indexEv(ptr noundef nonnull align 8 dereferenceable(56) %this) #4 comdat align 2 {
entry:
  %this.addr = alloca ptr, align 8
  store ptr %this, ptr %this.addr, align 8
  %this1 = load ptr, ptr %this.addr, align 8
  %containing_type_ = getelementptr inbounds %"class.google::protobuf::OneofDescriptor", ptr %this1, i32 0, i32 3
  %0 = load ptr, ptr %containing_type_, align 8
  %oneof_decls_ = getelementptr inbounds %"class.google::protobuf::Descriptor", ptr %0, i32 0, i32 11
  %1 = load ptr, ptr %oneof_decls_, align 8
  %sub.ptr.lhs.cast = ptrtoint ptr %this1 to i64
  %sub.ptr.rhs.cast = ptrtoint ptr %1 to i64
  %sub.ptr.sub = sub i64 %sub.ptr.lhs.cast, %sub.ptr.rhs.cast
  %sub.ptr.div = sdiv exact i64 %sub.ptr.sub, 56
  %conv = trunc i64 %sub.ptr.div to i32
  ret i32 %conv
}

; Function Attrs: mustprogress nounwind uwtable
define linkonce_odr hidden noundef nonnull align 4 dereferenceable(4) ptr @_ZN6google8protobuf8internal19GetConstRefAtOffsetIjEERKT_RKNS0_7MessageEj(ptr noundef nonnull align 8 dereferenceable(16) %message, i32 noundef %offset) #4 comdat {
entry:
  %message.addr = alloca ptr, align 8
  %offset.addr = alloca i32, align 4
  store ptr %message, ptr %message.addr, align 8
  store i32 %offset, ptr %offset.addr, align 4
  %0 = load ptr, ptr %message.addr, align 8
  %1 = load i32, ptr %offset.addr, align 4
  %call = call noundef ptr @_ZN6google8protobuf8internal23GetConstPointerAtOffsetIjEEPKT_PKvj(ptr noundef %0, i32 noundef %1)
  ret ptr %call
}

; Function Attrs: mustprogress nounwind uwtable
define linkonce_odr hidden noundef i32 @_ZNK6google8protobuf8internal16ReflectionSchema18GetOneofCaseOffsetEPKNS0_15OneofDescriptorE(ptr noundef nonnull align 8 dereferenceable(72) %this, ptr noundef %oneof_descriptor) #4 comdat align 2 {
entry:
  %this.addr = alloca ptr, align 8
  %oneof_descriptor.addr = alloca ptr, align 8
  store ptr %this, ptr %this.addr, align 8
  store ptr %oneof_descriptor, ptr %oneof_descriptor.addr, align 8
  %this1 = load ptr, ptr %this.addr, align 8
  %oneof_case_offset_ = getelementptr inbounds %"struct.google::protobuf::internal::ReflectionSchema", ptr %this1, i32 0, i32 6
  %0 = load i32, ptr %oneof_case_offset_, align 4
  %1 = load ptr, ptr %oneof_descriptor.addr, align 8
  %call = call noundef i32 @_ZNK6google8protobuf15OneofDescriptor5indexEv(ptr noundef nonnull align 8 dereferenceable(56) %1)
  %conv = sext i32 %call to i64
  %mul = mul i64 %conv, 4
  %conv2 = trunc i64 %mul to i32
  %add = add i32 %0, %conv2
  ret i32 %add
}

; Function Attrs: mustprogress uwtable
define noundef i32 @_ZNK6google8protobuf10Reflection12GetOneofCaseERKNS0_7MessageEPKNS0_15OneofDescriptorE(ptr noundef nonnull align 8 dereferenceable(112) %this, ptr noundef nonnull align 8 dereferenceable(16) %message, ptr noundef %oneof_descriptor) #5 align 2 {
entry:
  %this.addr = alloca ptr, align 8
  %message.addr = alloca ptr, align 8
  %oneof_descriptor.addr = alloca ptr, align 8
  store ptr %this, ptr %this.addr, align 8
  store ptr %message, ptr %message.addr, align 8
  store ptr %oneof_descriptor, ptr %oneof_descriptor.addr, align 8
  %this1 = load ptr, ptr %this.addr, align 8
  %0 = load ptr, ptr %message.addr, align 8
  %schema_ = getelementptr inbounds %"class.google::protobuf::Reflection", ptr %this1, i32 0, i32 1
  %1 = load ptr, ptr %oneof_descriptor.addr, align 8
  %call = call noundef i32 @_ZNK6google8protobuf8internal16ReflectionSchema18GetOneofCaseOffsetEPKNS0_15OneofDescriptorE(ptr noundef nonnull align 8 dereferenceable(72) %schema_, ptr noundef %1)
  %call2 = call noundef nonnull align 4 dereferenceable(4) ptr @_ZN6google8protobuf8internal19GetConstRefAtOffsetIjEERKT_RKNS0_7MessageEj(ptr noundef nonnull align 8 dereferenceable(16) %0, i32 noundef %call)
  %2 = load i32, ptr %call2, align 4
  ret i32 %2
}