; Function Attrs: mustprogress nofree norecurse nosync nounwind willreturn memory(read, inaccessiblemem: none) uwtable
define noundef i32 @_ZNK6google8protobuf10Reflection12GetOneofCaseERKNS0_7MessageEPKNS0_15OneofDescriptorE(ptr nocapture noundef nonnull readonly align 8 dereferenceable(112) %this, ptr nocapture noundef nonnull readonly align 8 dereferenceable(16) %message, ptr noundef %oneof_descriptor) local_unnamed_addr #16 align 2 {
entry:
  %oneof_case_offset_.i = getelementptr inbounds i8, ptr %this, i64 44
  %0 = load i32, ptr %oneof_case_offset_.i, align 4
  %containing_type_.i.i = getelementptr inbounds i8, ptr %oneof_descriptor, i64 16
  %1 = load ptr, ptr %containing_type_.i.i, align 8
  %oneof_decls_.i.i = getelementptr inbounds i8, ptr %1, i64 64
  %2 = load ptr, ptr %oneof_decls_.i.i, align 8
  %sub.ptr.lhs.cast.i.i = ptrtoint ptr %oneof_descriptor to i64
  %sub.ptr.rhs.cast.i.i = ptrtoint ptr %2 to i64
  %sub.ptr.sub.i.i = sub i64 %sub.ptr.lhs.cast.i.i, %sub.ptr.rhs.cast.i.i
  %sub.ptr.div.i.i = sdiv exact i64 %sub.ptr.sub.i.i, 56
  %conv.i.i = trunc i64 %sub.ptr.div.i.i to i32
  %mul.i = shl i32 %conv.i.i, 2
  %add.i = add i32 %mul.i, %0
  %idx.ext.i.i = zext i32 %add.i to i64
  %add.ptr.i.i = getelementptr inbounds i8, ptr %message, i64 %idx.ext.i.i
  %3 = load i32, ptr %add.ptr.i.i, align 4
  ret i32 %3
}